; Function Attrs: mustprogress nofree norecurse nosync nounwind willreturn memory(read, inaccessiblemem: none) uwtable
define hidden noundef ptr @_ZN11StoreCMNode8IdentityEP8PhaseGVN(ptr noundef nonnull readonly align 8 dereferenceable(64) %0, ptr nocapture noundef readonly %1) unnamed_addr #2 align 2 {
  %3 = getelementptr inbounds i8, ptr %0, i64 8
  %4 = load ptr, ptr %3, align 8
  %5 = getelementptr inbounds i8, ptr %4, i64 32
  %6 = load ptr, ptr %5, align 8
  %7 = getelementptr inbounds i8, ptr %6, i64 44
  %8 = load i32, ptr %7, align 4
  %9 = and i32 %8, 127
  %10 = icmp eq i32 %9, 80
  br i1 %10, label %11, label %30

11:                                               ; preds = %2
  %12 = getelementptr inbounds i8, ptr %6, i64 8
  %13 = load ptr, ptr %12, align 8
  %14 = getelementptr inbounds i8, ptr %13, i64 24
  %15 = load ptr, ptr %14, align 8
  %16 = getelementptr inbounds i8, ptr %1, i64 40
  %17 = load ptr, ptr %16, align 8
  %18 = getelementptr inbounds i8, ptr %15, i64 40
  %19 = load i32, ptr %18, align 8
  %20 = getelementptr inbounds i8, ptr %17, i64 16
  %21 = load ptr, ptr %20, align 8
  %22 = zext i32 %19 to i64
  %23 = getelementptr inbounds ptr, ptr %21, i64 %22
  %24 = load ptr, ptr %23, align 8
  %25 = load ptr, ptr @_ZN7TypePtr8NULL_PTRE, align 8
  %26 = icmp eq ptr %24, %25
  br i1 %26, label %27, label %30

27:                                               ; preds = %11
  %28 = getelementptr inbounds i8, ptr %4, i64 8
  %29 = load ptr, ptr %28, align 8
  br label %30

30:                                               ; preds = %2, %11, %27
  %.0 = phi ptr [ %29, %27 ], [ %0, %11 ], [ %0, %2 ]
  ret ptr %.0
}